target datalayout = "e-m:e-p270:32:32-p271:32:32-p272:64:64-i64:64-i128:128-f80:128-n8:16:32:64-S128"
target triple = "x86_64-pc-linux-gnu"

%struct.rlimit = type { i64, i64 }

@PyExc_ValueError = external global ptr, align 8
@PyExc_OSError = external global ptr, align 8
@.str.8 = private unnamed_addr constant [27 x i8] c"invalid resource specified\00", align 1
@.str.9 = private unnamed_addr constant [3 x i8] c"ll\00", align 1
@PyExc_TypeError = external global ptr, align 8
@.str.10 = private unnamed_addr constant [47 x i8] c"prlimit expected at least 2 arguments, got %zd\00", align 1
@.str.11 = private unnamed_addr constant [46 x i8] c"prlimit expected at most 3 arguments, got %zd\00", align 1
@.str.12 = private unnamed_addr constant [17 x i8] c"resource.prlimit\00", align 1
@.str.13 = private unnamed_addr constant [4 x i8] c"iiO\00", align 1
@.str.14 = private unnamed_addr constant [36 x i8] c"current limit exceeds maximum limit\00", align 1

; Function Attrs: nounwind uwtable
define internal ptr @rlimit2py(i64 %0, i64 %1) #0 {
  %3 = alloca %struct.rlimit, align 8
  %4 = getelementptr inbounds nuw { i64, i64 }, ptr %3, i32 0, i32 0
  store i64 %0, ptr %4, align 8
  %5 = getelementptr inbounds nuw { i64, i64 }, ptr %3, i32 0, i32 1
  store i64 %1, ptr %5, align 8
  %6 = getelementptr inbounds nuw %struct.rlimit, ptr %3, i32 0, i32 0
  %7 = load i64, ptr %6, align 8, !tbaa !28
  %8 = getelementptr inbounds nuw %struct.rlimit, ptr %3, i32 0, i32 1
  %9 = load i64, ptr %8, align 8, !tbaa !30
  %10 = call ptr (ptr, ...) @Py_BuildValue(ptr noundef @.str.9, i64 noundef %7, i64 noundef %9)
  ret ptr %10
}

; Function Attrs: nounwind uwtable
define internal ptr @resource_prlimit_impl(ptr noundef %0, i32 noundef %1, i32 noundef %2, ptr noundef %3) #0 {
  %5 = alloca ptr, align 8
  %6 = alloca ptr, align 8
  %7 = alloca i32, align 4
  %8 = alloca i32, align 4
  %9 = alloca ptr, align 8
  %10 = alloca %struct.rlimit, align 8
  %11 = alloca %struct.rlimit, align 8
  %12 = alloca i32, align 4
  %13 = alloca i32, align 4
  store ptr %0, ptr %6, align 8, !tbaa !3
  store i32 %1, ptr %7, align 4, !tbaa !12
  store i32 %2, ptr %8, align 4, !tbaa !12
  store ptr %3, ptr %9, align 8, !tbaa !3
  call void @llvm.lifetime.start.p0(i64 16, ptr %10) #7
  call void @llvm.lifetime.start.p0(i64 16, ptr %11) #7
  call void @llvm.lifetime.start.p0(i64 4, ptr %12) #7
  %14 = load i32, ptr %8, align 4, !tbaa !12
  %15 = icmp slt i32 %14, 0
  br i1 %15, label %19, label %16

16:                                               ; preds = %4
  %17 = load i32, ptr %8, align 4, !tbaa !12
  %18 = icmp sge i32 %17, 16
  br i1 %18, label %19, label %21

19:                                               ; preds = %16, %4
  %20 = load ptr, ptr @PyExc_ValueError, align 8, !tbaa !3
  call void @PyErr_SetString(ptr noundef %20, ptr noundef @.str.8)
  store ptr null, ptr %5, align 8
  store i32 1, ptr %13, align 4
  br label %71

21:                                               ; preds = %16
  %22 = load i32, ptr %7, align 4, !tbaa !12
  %23 = load i32, ptr %8, align 4, !tbaa !12
  %24 = load ptr, ptr %9, align 8, !tbaa !3
  %25 = icmp ne ptr %24, null
  br i1 %25, label %26, label %28

26:                                               ; preds = %21
  %27 = load ptr, ptr %9, align 8, !tbaa !3
  br label %30

28:                                               ; preds = %21
  %29 = call ptr @Py_GetConstantBorrowed(i32 noundef 0)
  br label %30

30:                                               ; preds = %28, %26
  %31 = phi ptr [ %27, %26 ], [ %29, %28 ]
  %32 = call i32 (ptr, ptr, ...) @PySys_Audit(ptr noundef @.str.12, ptr noundef @.str.13, i32 noundef %22, i32 noundef %23, ptr noundef %31)
  %33 = icmp slt i32 %32, 0
  br i1 %33, label %34, label %35

34:                                               ; preds = %30
  store ptr null, ptr %5, align 8
  store i32 1, ptr %13, align 4
  br label %71

35:                                               ; preds = %30
  %36 = load ptr, ptr %9, align 8, !tbaa !3
  %37 = call ptr @Py_GetConstantBorrowed(i32 noundef 0)
  %38 = icmp ne ptr %36, %37
  br i1 %38, label %39, label %48

39:                                               ; preds = %35
  %40 = load ptr, ptr %9, align 8, !tbaa !3
  %41 = call i32 @py2rlimit(ptr noundef %40, ptr noundef %11)
  %42 = icmp slt i32 %41, 0
  br i1 %42, label %43, label %44

43:                                               ; preds = %39
  store ptr null, ptr %5, align 8
  store i32 1, ptr %13, align 4
  br label %71

44:                                               ; preds = %39
  %45 = load i32, ptr %7, align 4, !tbaa !12
  %46 = load i32, ptr %8, align 4, !tbaa !12
  %47 = call i32 @prlimit64(i32 noundef %45, i32 noundef %46, ptr noundef %11, ptr noundef %10) #7
  store i32 %47, ptr %12, align 4, !tbaa !12
  br label %52

48:                                               ; preds = %35
  %49 = load i32, ptr %7, align 4, !tbaa !12
  %50 = load i32, ptr %8, align 4, !tbaa !12
  %51 = call i32 @prlimit64(i32 noundef %49, i32 noundef %50, ptr noundef null, ptr noundef %10) #7
  store i32 %51, ptr %12, align 4, !tbaa !12
  br label %52

52:                                               ; preds = %48, %44
  %53 = load i32, ptr %12, align 4, !tbaa !12
  %54 = icmp eq i32 %53, -1
  br i1 %54, label %55, label %65

55:                                               ; preds = %52
  %56 = call ptr @__errno_location() #8
  %57 = load i32, ptr %56, align 4, !tbaa !12
  %58 = icmp eq i32 %57, 22
  br i1 %58, label %59, label %61

59:                                               ; preds = %55
  %60 = load ptr, ptr @PyExc_ValueError, align 8, !tbaa !3
  call void @PyErr_SetString(ptr noundef %60, ptr noundef @.str.14)
  br label %64

61:                                               ; preds = %55
  %62 = load ptr, ptr @PyExc_OSError, align 8, !tbaa !3
  %63 = call ptr @PyErr_SetFromErrno(ptr noundef %62)
  br label %64

64:                                               ; preds = %61, %59
  store ptr null, ptr %5, align 8
  store i32 1, ptr %13, align 4
  br label %71

65:                                               ; preds = %52
  %66 = getelementptr inbounds nuw { i64, i64 }, ptr %10, i32 0, i32 0
  %67 = load i64, ptr %66, align 8
  %68 = getelementptr inbounds nuw { i64, i64 }, ptr %10, i32 0, i32 1
  %69 = load i64, ptr %68, align 8
  %70 = call ptr @rlimit2py(i64 %67, i64 %69)
  store ptr %70, ptr %5, align 8
  store i32 1, ptr %13, align 4
  br label %71

71:                                               ; preds = %65, %64, %43, %34, %19
  call void @llvm.lifetime.end.p0(i64 4, ptr %12) #7
  call void @llvm.lifetime.end.p0(i64 16, ptr %11) #7
  call void @llvm.lifetime.end.p0(i64 16, ptr %10) #7
  %72 = load ptr, ptr %5, align 8
  ret ptr %72
}

; Function Attrs: nounwind uwtable
define internal ptr @resource_prlimit(ptr noundef %0, ptr noundef %1, i64 noundef %2) #0 {
  %4 = alloca ptr, align 8
  %5 = alloca ptr, align 8
  %6 = alloca i64, align 8
  %7 = alloca ptr, align 8
  %8 = alloca i32, align 4
  %9 = alloca i32, align 4
  %10 = alloca ptr, align 8
  store ptr %0, ptr %4, align 8, !tbaa !3
  store ptr %1, ptr %5, align 8, !tbaa !17
  store i64 %2, ptr %6, align 8, !tbaa !19
  call void @llvm.lifetime.start.p0(i64 8, ptr %7) #7
  store ptr null, ptr %7, align 8, !tbaa !3
  call void @llvm.lifetime.start.p0(i64 4, ptr %8) #7
  call void @llvm.lifetime.start.p0(i64 4, ptr %9) #7
  call void @llvm.lifetime.start.p0(i64 8, ptr %10) #7
  %11 = call ptr @Py_GetConstantBorrowed(i32 noundef 0)
  store ptr %11, ptr %10, align 8, !tbaa !3
  %12 = load i64, ptr %6, align 8, !tbaa !19
  %13 = icmp slt i64 %12, 2
  br i1 %13, label %14, label %18

14:                                               ; preds = %3
  %15 = load ptr, ptr @PyExc_TypeError, align 8, !tbaa !3
  %16 = load i64, ptr %6, align 8, !tbaa !19
  %17 = call ptr (ptr, ptr, ...) @PyErr_Format(ptr noundef %15, ptr noundef @.str.10, i64 noundef %16)
  br label %61

18:                                               ; preds = %3
  %19 = load i64, ptr %6, align 8, !tbaa !19
  %20 = icmp sgt i64 %19, 3
  br i1 %20, label %21, label %25

21:                                               ; preds = %18
  %22 = load ptr, ptr @PyExc_TypeError, align 8, !tbaa !3
  %23 = load i64, ptr %6, align 8, !tbaa !19
  %24 = call ptr (ptr, ptr, ...) @PyErr_Format(ptr noundef %22, ptr noundef @.str.11, i64 noundef %23)
  br label %61

25:                                               ; preds = %18
  %26 = load ptr, ptr %5, align 8, !tbaa !17
  %27 = getelementptr ptr, ptr %26, i64 0
  %28 = load ptr, ptr %27, align 8, !tbaa !3
  %29 = call i32 @PyLong_AsInt(ptr noundef %28)
  store i32 %29, ptr %8, align 4, !tbaa !12
  %30 = load i32, ptr %8, align 4, !tbaa !12
  %31 = icmp eq i32 %30, -1
  br i1 %31, label %32, label %36

32:                                               ; preds = %25
  %33 = call ptr @PyErr_Occurred()
  %34 = icmp ne ptr %33, null
  br i1 %34, label %35, label %36

35:                                               ; preds = %32
  br label %61

36:                                               ; preds = %32, %25
  %37 = load ptr, ptr %5, align 8, !tbaa !17
  %38 = getelementptr ptr, ptr %37, i64 1
  %39 = load ptr, ptr %38, align 8, !tbaa !3
  %40 = call i32 @PyLong_AsInt(ptr noundef %39)
  store i32 %40, ptr %9, align 4, !tbaa !12
  %41 = load i32, ptr %9, align 4, !tbaa !12
  %42 = icmp eq i32 %41, -1
  br i1 %42, label %43, label %47

43:                                               ; preds = %36
  %44 = call ptr @PyErr_Occurred()
  %45 = icmp ne ptr %44, null
  br i1 %45, label %46, label %47

46:                                               ; preds = %43
  br label %61

47:                                               ; preds = %43, %36
  %48 = load i64, ptr %6, align 8, !tbaa !19
  %49 = icmp slt i64 %48, 3
  br i1 %49, label %50, label %51

50:                                               ; preds = %47
  br label %55

51:                                               ; preds = %47
  %52 = load ptr, ptr %5, align 8, !tbaa !17
  %53 = getelementptr ptr, ptr %52, i64 2
  %54 = load ptr, ptr %53, align 8, !tbaa !3
  store ptr %54, ptr %10, align 8, !tbaa !3
  br label %55

55:                                               ; preds = %51, %50
  %56 = load ptr, ptr %4, align 8, !tbaa !3
  %57 = load i32, ptr %8, align 4, !tbaa !12
  %58 = load i32, ptr %9, align 4, !tbaa !12
  %59 = load ptr, ptr %10, align 8, !tbaa !3
  %60 = call ptr @resource_prlimit_impl(ptr noundef %56, i32 noundef %57, i32 noundef %58, ptr noundef %59)
  store ptr %60, ptr %7, align 8, !tbaa !3
  br label %61

61:                                               ; preds = %55, %46, %35, %21, %14
  %62 = load ptr, ptr %7, align 8, !tbaa !3
  call void @llvm.lifetime.end.p0(i64 8, ptr %10) #7
  call void @llvm.lifetime.end.p0(i64 4, ptr %9) #7
  call void @llvm.lifetime.end.p0(i64 4, ptr %8) #7
  call void @llvm.lifetime.end.p0(i64 8, ptr %7) #7
  ret ptr %62
}