; Function Attrs: nounwind uwtable
define internal ptr @resource_prlimit(ptr readnone captures(none) %0, ptr noundef readonly captures(none) %1, i64 noundef %2) #0 {
  %4 = alloca %struct.rlimit, align 8
  %5 = alloca %struct.rlimit, align 8
  %6 = tail call ptr @Py_GetConstantBorrowed(i32 noundef 0) #6
  %7 = icmp slt i64 %2, 2
  br i1 %7, label %8, label %11

8:                                                ; preds = %3
  %9 = load ptr, ptr @PyExc_TypeError, align 8, !tbaa !10
  %10 = tail call ptr (ptr, ptr, ...) @PyErr_Format(ptr noundef %9, ptr noundef nonnull @.str.10, i64 noundef %2) #6
  br label %66

11:                                               ; preds = %3
  %12 = icmp samesign ugt i64 %2, 3
  br i1 %12, label %13, label %16

13:                                               ; preds = %11
  %14 = load ptr, ptr @PyExc_TypeError, align 8, !tbaa !10
  %15 = tail call ptr (ptr, ptr, ...) @PyErr_Format(ptr noundef %14, ptr noundef nonnull @.str.11, i64 noundef %2) #6
  br label %66

16:                                               ; preds = %11
  %17 = load ptr, ptr %1, align 8, !tbaa !10
  %18 = tail call i32 @PyLong_AsInt(ptr noundef %17) #6
  %19 = icmp eq i32 %18, -1
  br i1 %19, label %20, label %22

20:                                               ; preds = %16
  %21 = tail call ptr @PyErr_Occurred() #6
  %.not = icmp eq ptr %21, null
  br i1 %.not, label %22, label %66

22:                                               ; preds = %20, %16
  %23 = getelementptr i8, ptr %1, i64 8
  %24 = load ptr, ptr %23, align 8, !tbaa !10
  %25 = tail call i32 @PyLong_AsInt(ptr noundef %24) #6
  %26 = icmp eq i32 %25, -1
  br i1 %26, label %27, label %29

27:                                               ; preds = %22
  %28 = tail call ptr @PyErr_Occurred() #6
  %.not16 = icmp eq ptr %28, null
  br i1 %.not16, label %29, label %66

29:                                               ; preds = %27, %22
  %30 = icmp eq i64 %2, 2
  br i1 %30, label %34, label %31

31:                                               ; preds = %29
  %32 = getelementptr i8, ptr %1, i64 16
  %33 = load ptr, ptr %32, align 8, !tbaa !10
  br label %34

34:                                               ; preds = %29, %31
  %.0 = phi ptr [ %6, %29 ], [ %33, %31 ]
  call void @llvm.lifetime.start.p0(i64 16, ptr nonnull %4) #6
  call void @llvm.lifetime.start.p0(i64 16, ptr nonnull %5) #6
  %or.cond.i = icmp ugt i32 %25, 15
  br i1 %or.cond.i, label %35, label %37

35:                                               ; preds = %34
  %36 = load ptr, ptr @PyExc_ValueError, align 8, !tbaa !10
  tail call void @PyErr_SetString(ptr noundef %36, ptr noundef nonnull @.str.8) #6
  br label %resource_prlimit_impl.exit

37:                                               ; preds = %34
  %.not.i = icmp eq ptr %.0, null
  br i1 %.not.i, label %38, label %40

38:                                               ; preds = %37
  %39 = tail call ptr @Py_GetConstantBorrowed(i32 noundef 0) #6
  br label %40

40:                                               ; preds = %38, %37
  %41 = phi ptr [ %39, %38 ], [ %.0, %37 ]
  %42 = tail call i32 (ptr, ptr, ...) @PySys_Audit(ptr noundef nonnull @.str.12, ptr noundef nonnull @.str.13, i32 noundef %18, i32 noundef %25, ptr noundef %41) #6
  %43 = icmp slt i32 %42, 0
  br i1 %43, label %resource_prlimit_impl.exit, label %44

44:                                               ; preds = %40
  %45 = tail call ptr @Py_GetConstantBorrowed(i32 noundef 0) #6
  %.not17.i = icmp eq ptr %.0, %45
  br i1 %.not17.i, label %49, label %46

46:                                               ; preds = %44
  %47 = call fastcc i32 @py2rlimit(ptr noundef %.0, ptr noundef %5)
  %48 = icmp slt i32 %47, 0
  br i1 %48, label %resource_prlimit_impl.exit, label %49

49:                                               ; preds = %46, %44
  %.sink.i = phi ptr [ %5, %46 ], [ null, %44 ]
  %50 = call i32 @prlimit64(i32 noundef %18, i32 noundef %25, ptr noundef %.sink.i, ptr noundef nonnull %4) #6
  %51 = icmp eq i32 %50, -1
  br i1 %51, label %52, label %61

52:                                               ; preds = %49
  %53 = tail call ptr @__errno_location() #7
  %54 = load i32, ptr %53, align 4, !tbaa !12
  %55 = icmp eq i32 %54, 22
  br i1 %55, label %56, label %58

56:                                               ; preds = %52
  %57 = load ptr, ptr @PyExc_ValueError, align 8, !tbaa !10
  call void @PyErr_SetString(ptr noundef %57, ptr noundef nonnull @.str.14) #6
  br label %resource_prlimit_impl.exit

58:                                               ; preds = %52
  %59 = load ptr, ptr @PyExc_OSError, align 8, !tbaa !10
  %60 = call ptr @PyErr_SetFromErrno(ptr noundef %59) #6
  br label %resource_prlimit_impl.exit

61:                                               ; preds = %49
  %62 = load i64, ptr %4, align 8
  %63 = getelementptr inbounds nuw i8, ptr %4, i64 8
  %64 = load i64, ptr %63, align 8
  %65 = call ptr (ptr, ...) @Py_BuildValue(ptr noundef nonnull @.str.9, i64 noundef %62, i64 noundef %64) #6
  br label %resource_prlimit_impl.exit

resource_prlimit_impl.exit:                       ; preds = %35, %40, %46, %56, %58, %61
  %.014.i = phi ptr [ null, %35 ], [ %65, %61 ], [ null, %40 ], [ null, %46 ], [ null, %58 ], [ null, %56 ]
  call void @llvm.lifetime.end.p0(i64 16, ptr nonnull %5) #6
  call void @llvm.lifetime.end.p0(i64 16, ptr nonnull %4) #6
  br label %66

66:                                               ; preds = %27, %20, %resource_prlimit_impl.exit, %13, %8
  %.014 = phi ptr [ null, %8 ], [ null, %13 ], [ null, %20 ], [ null, %27 ], [ %.014.i, %resource_prlimit_impl.exit ]
  ret ptr %.014
}